; ModuleID = '11/409.c'
source_filename = "11/409.c"
target datalayout = "e-m:e-p270:32:32-p271:32:32-p272:64:64-i64:64-f80:128-n8:16:32:64-S128"
target triple = "x86_64-pc-linux-gnu"

@__const.main.aa = private unnamed_addr constant [12 x i32] [i32 31, i32 0, i32 31, i32 30, i32 31, i32 30, i32 31, i32 31, i32 30, i32 31, i32 30, i32 31], align 16
@.str = private unnamed_addr constant [7 x i8] c"%d%d%d\00", align 1
@.str.1 = private unnamed_addr constant [3 x i8] c"%d\00", align 1

; Function Attrs: noinline nounwind uwtable
define dso_local i32 @main(i32 %0, i8** %1) #0 {
  %3 = alloca i32, align 4
  %4 = alloca i32, align 4
  %5 = alloca i8**, align 8
  %6 = alloca i32, align 4
  %7 = alloca i32, align 4
  %8 = alloca i32, align 4
  %9 = alloca i32, align 4
  %10 = alloca [12 x i32], align 16
  %11 = alloca i32, align 4
  store i32 0, i32* %3, align 4
  store i32 %0, i32* %4, align 4
  store i8** %1, i8*** %5, align 8
  store i32 0, i32* %9, align 4
  %12 = bitcast [12 x i32]* %10 to i8*
  call void @llvm.memcpy.p0i8.p0i8.i64(i8* align 16 %12, i8* align 16 bitcast ([12 x i32]* @__const.main.aa to i8*), i64 48, i1 false)
  %13 = call i32 (i8*, ...) @__isoc99_scanf(i8* getelementptr inbounds ([7 x i8], [7 x i8]* @.str, i64 0, i64 0), i32* %6, i32* %7, i32* %8)
  store i32 0, i32* %11, align 4
  br label %14

14:                                               ; preds = %26, %2
  %15 = load i32, i32* %11, align 4
  %16 = load i32, i32* %7, align 4
  %17 = sub nsw i32 %16, 1
  %18 = icmp slt i32 %15, %17
  br i1 %18, label %19, label %29

19:                                               ; preds = %14
  %20 = load i32, i32* %9, align 4
  %21 = load i32, i32* %11, align 4
  %22 = sext i32 %21 to i64
  %23 = getelementptr inbounds [12 x i32], [12 x i32]* %10, i64 0, i64 %22
  %24 = load i32, i32* %23, align 4
  %25 = add nsw i32 %20, %24
  store i32 %25, i32* %9, align 4
  br label %26

26:                                               ; preds = %19
  %27 = load i32, i32* %11, align 4
  %28 = add nsw i32 %27, 1
  store i32 %28, i32* %11, align 4
  br label %14

29:                                               ; preds = %14
  %30 = load i32, i32* %7, align 4
  %31 = icmp sgt i32 %30, 2
  br i1 %31, label %32, label %51

32:                                               ; preds = %29
  %33 = load i32, i32* %6, align 4
  %34 = srem i32 %33, 4
  %35 = icmp eq i32 %34, 0
  br i1 %35, label %36, label %40

36:                                               ; preds = %32
  %37 = load i32, i32* %6, align 4
  %38 = srem i32 %37, 100
  %39 = icmp ne i32 %38, 0
  br i1 %39, label %44, label %40

40:                                               ; preds = %36, %32
  %41 = load i32, i32* %6, align 4
  %42 = srem i32 %41, 400
  %43 = icmp eq i32 %42, 0
  br i1 %43, label %44, label %47

44:                                               ; preds = %40, %36
  %45 = load i32, i32* %9, align 4
  %46 = add nsw i32 %45, 29
  store i32 %46, i32* %9, align 4
  br label %50

47:                                               ; preds = %40
  %48 = load i32, i32* %9, align 4
  %49 = add nsw i32 %48, 28
  store i32 %49, i32* %9, align 4
  br label %50

50:                                               ; preds = %47, %44
  br label %51

51:                                               ; preds = %50, %29
  %52 = load i32, i32* %9, align 4
  %53 = load i32, i32* %8, align 4
  %54 = add nsw i32 %52, %53
  store i32 %54, i32* %9, align 4
  %55 = load i32, i32* %9, align 4
  %56 = call i32 (i8*, ...) @printf(i8* getelementptr inbounds ([3 x i8], [3 x i8]* @.str.1, i64 0, i64 0), i32 %55)
  ret i32 0
}

; Function Attrs: argmemonly nounwind willreturn
declare void @llvm.memcpy.p0i8.p0i8.i64(i8* noalias nocapture writeonly, i8* noalias nocapture readonly, i64, i1 immarg) #1

declare dso_local i32 @__isoc99_scanf(i8*, ...) #2

declare dso_local i32 @printf(i8*, ...) #2


!llvm.module.flags = !{!0}
!llvm.ident = !{!1}

!0 = !{i32 1, !"wchar_size", i32 4}
!1 = !{!"clang version 10.0.0-4ubuntu1 "}
